target datalayout = "e-m:e-p270:32:32-p271:32:32-p272:64:64-i64:64-i128:128-f80:128-n8:16:32:64-S128"
target triple = "x86_64-pc-linux-gnu"

%struct.Decimal = type { i8, i8, i8, i8, i32, i32, ptr }

; Function Attrs: nounwind uwtable
define internal void @decimal_clear(ptr noundef %0) #0 {
  %2 = alloca ptr, align 8
  store ptr %0, ptr %2, align 8, !tbaa !68
  %3 = load ptr, ptr %2, align 8, !tbaa !68
  %4 = getelementptr inbounds nuw %struct.Decimal, ptr %3, i32 0, i32 6
  %5 = load ptr, ptr %4, align 8, !tbaa !75
  call void @sqlite3_free(ptr noundef %5)
  ret void
}

; Function Attrs: nounwind uwtable
define internal void @decimal_free(ptr noundef %0) #0 {
  %2 = alloca ptr, align 8
  store ptr %0, ptr %2, align 8, !tbaa !68
  %3 = load ptr, ptr %2, align 8, !tbaa !68
  %4 = icmp ne ptr %3, null
  br i1 %4, label %5, label %8

5:                                                ; preds = %1
  %6 = load ptr, ptr %2, align 8, !tbaa !68
  call void @decimal_clear(ptr noundef %6)
  %7 = load ptr, ptr %2, align 8, !tbaa !68
  call void @sqlite3_free(ptr noundef %7)
  br label %8

8:                                                ; preds = %5, %1
  ret void
}

; Function Attrs: nounwind uwtable
define internal void @decimalSumInverse(ptr noundef %0, i32 noundef %1, ptr noundef %2) #0 {
  %4 = alloca ptr, align 8
  %5 = alloca i32, align 4
  %6 = alloca ptr, align 8
  %7 = alloca ptr, align 8
  %8 = alloca ptr, align 8
  %9 = alloca i32, align 4
  store ptr %0, ptr %4, align 8, !tbaa !25
  store i32 %1, ptr %5, align 4, !tbaa !3
  store ptr %2, ptr %6, align 8, !tbaa !27
  call void @llvm.lifetime.start.p0(i64 8, ptr %7) #14
  call void @llvm.lifetime.start.p0(i64 8, ptr %8) #14
  %10 = load ptr, ptr %4, align 8, !tbaa !25
  %11 = call ptr @sqlite3_aggregate_context(ptr noundef %10, i32 noundef 24)
  store ptr %11, ptr %7, align 8, !tbaa !68
  %12 = load ptr, ptr %7, align 8, !tbaa !68
  %13 = icmp eq ptr %12, null
  br i1 %13, label %14, label %15

14:                                               ; preds = %3
  store i32 1, ptr %9, align 4
  br label %44

15:                                               ; preds = %3
  %16 = load ptr, ptr %6, align 8, !tbaa !27
  %17 = getelementptr inbounds ptr, ptr %16, i64 0
  %18 = load ptr, ptr %17, align 8, !tbaa !29
  %19 = call i32 @sqlite3_value_type(ptr noundef %18)
  %20 = icmp eq i32 %19, 5
  br i1 %20, label %21, label %22

21:                                               ; preds = %15
  store i32 1, ptr %9, align 4
  br label %44

22:                                               ; preds = %15
  %23 = load ptr, ptr %4, align 8, !tbaa !25
  %24 = load ptr, ptr %6, align 8, !tbaa !27
  %25 = getelementptr inbounds ptr, ptr %24, i64 0
  %26 = load ptr, ptr %25, align 8, !tbaa !29
  %27 = call ptr @decimal_new(ptr noundef %23, ptr noundef %26, i32 noundef 1)
  store ptr %27, ptr %8, align 8, !tbaa !68
  %28 = load ptr, ptr %8, align 8, !tbaa !68
  %29 = icmp ne ptr %28, null
  br i1 %29, label %30, label %40

30:                                               ; preds = %22
  %31 = load ptr, ptr %8, align 8, !tbaa !68
  %32 = getelementptr inbounds nuw %struct.Decimal, ptr %31, i32 0, i32 0
  %33 = load i8, ptr %32, align 8, !tbaa !72
  %34 = icmp ne i8 %33, 0
  %35 = xor i1 %34, true
  %36 = zext i1 %35 to i32
  %37 = trunc i32 %36 to i8
  %38 = load ptr, ptr %8, align 8, !tbaa !68
  %39 = getelementptr inbounds nuw %struct.Decimal, ptr %38, i32 0, i32 0
  store i8 %37, ptr %39, align 8, !tbaa !72
  br label %40

40:                                               ; preds = %30, %22
  %41 = load ptr, ptr %7, align 8, !tbaa !68
  %42 = load ptr, ptr %8, align 8, !tbaa !68
  call void @decimal_add(ptr noundef %41, ptr noundef %42)
  %43 = load ptr, ptr %8, align 8, !tbaa !68
  call void @decimal_free(ptr noundef %43)
  store i32 0, ptr %9, align 4
  br label %44

44:                                               ; preds = %40, %21, %14
  call void @llvm.lifetime.end.p0(i64 8, ptr %8) #14
  call void @llvm.lifetime.end.p0(i64 8, ptr %7) #14
  %45 = load i32, ptr %9, align 4
  switch i32 %45, label %47 [
    i32 0, label %46
    i32 1, label %46
  ]

46:                                               ; preds = %44, %44
  ret void

47:                                               ; preds = %44
  unreachable
}