; Function Attrs: nounwind uwtable
define internal void @decimalSumInverse(ptr noundef %0, i32 %1, ptr noundef readonly captures(none) %2) #2 {
  %4 = tail call ptr @sqlite3_aggregate_context(ptr noundef %0, i32 noundef 24) #43
  %5 = icmp eq ptr %4, null
  br i1 %5, label %17, label %6

6:                                                ; preds = %3
  %7 = load ptr, ptr %2, align 8, !tbaa !18
  %8 = tail call i32 @sqlite3_value_type(ptr noundef %7) #43
  %9 = icmp eq i32 %8, 5
  br i1 %9, label %17, label %10

10:                                               ; preds = %6
  %11 = load ptr, ptr %2, align 8, !tbaa !18
  %12 = tail call fastcc ptr @decimal_new(ptr noundef %0, ptr noundef %11, i32 noundef 1)
  %.not = icmp eq ptr %12, null
  br i1 %.not, label %decimal_add.exit, label %decimal_free.exit

decimal_add.exit:                                 ; preds = %10
  %13 = getelementptr inbounds nuw i8, ptr %4, i64 1
  store i8 1, ptr %13, align 1, !tbaa !63
  br label %17

decimal_free.exit:                                ; preds = %10
  %14 = load i8, ptr %12, align 8, !tbaa !60
  %.not14 = icmp eq i8 %14, 0
  %15 = zext i1 %.not14 to i8
  store i8 %15, ptr %12, align 8, !tbaa !60
  tail call fastcc void @decimal_add(ptr noundef nonnull %4, ptr noundef nonnull %12)
  %16 = getelementptr i8, ptr %12, i64 16
  %.val.i = load ptr, ptr %16, align 8, !tbaa !57
  tail call void @sqlite3_free(ptr noundef %.val.i) #43
  tail call void @sqlite3_free(ptr noundef nonnull %12) #43
  br label %17

17:                                               ; preds = %decimal_free.exit, %decimal_add.exit, %6, %3
  ret void
}